******************************************************************************
                  MSP430 Linker PC v4.2.1                      
******************************************************************************
>> Linked Sun Apr 06 23:04:53 2014

OUTPUT FILE NAME:   <SH_Test0.out>
ENTRY POINT SYMBOL: "_c_int00"  address: 0000e942


MEMORY CONFIGURATION

         name            origin    length      used     unused   attr    fill
----------------------  --------  ---------  --------  --------  ----  --------
  SFR                   00000000   00000010  00000000  00000010  RWIX
  PERIPHERALS_8BIT      00000010   000000f0  00000000  000000f0  RWIX
  PERIPHERALS_16BIT     00000100   00000100  00000000  00000100  RWIX
  INFOB                 00001800   00000080  00000000  00000080  RWIX
  INFOA                 00001880   00000080  00000000  00000080  RWIX
  RAM                   00001c00   00000400  000001ba  00000246  RWIX
  FRAM                  0000c200   00003d80  000029ce  000013b2  RWIX
  SIGNATURE             0000ff80   00000010  00000000  00000010  RWIX
  INT00                 0000ff90   00000002  00000000  00000002  RWIX
  INT01                 0000ff92   00000002  00000000  00000002  RWIX
  INT02                 0000ff94   00000002  00000000  00000002  RWIX
  INT03                 0000ff96   00000002  00000000  00000002  RWIX
  INT04                 0000ff98   00000002  00000000  00000002  RWIX
  INT05                 0000ff9a   00000002  00000000  00000002  RWIX
  INT06                 0000ff9c   00000002  00000000  00000002  RWIX
  INT07                 0000ff9e   00000002  00000000  00000002  RWIX
  INT08                 0000ffa0   00000002  00000000  00000002  RWIX
  INT09                 0000ffa2   00000002  00000000  00000002  RWIX
  INT10                 0000ffa4   00000002  00000000  00000002  RWIX
  INT11                 0000ffa6   00000002  00000000  00000002  RWIX
  INT12                 0000ffa8   00000002  00000000  00000002  RWIX
  INT13                 0000ffaa   00000002  00000000  00000002  RWIX
  INT14                 0000ffac   00000002  00000000  00000002  RWIX
  INT15                 0000ffae   00000002  00000000  00000002  RWIX
  INT16                 0000ffb0   00000002  00000000  00000002  RWIX
  INT17                 0000ffb2   00000002  00000000  00000002  RWIX
  INT18                 0000ffb4   00000002  00000000  00000002  RWIX
  INT19                 0000ffb6   00000002  00000000  00000002  RWIX
  INT20                 0000ffb8   00000002  00000000  00000002  RWIX
  INT21                 0000ffba   00000002  00000000  00000002  RWIX
  INT22                 0000ffbc   00000002  00000000  00000002  RWIX
  INT23                 0000ffbe   00000002  00000000  00000002  RWIX
  INT24                 0000ffc0   00000002  00000000  00000002  RWIX
  INT25                 0000ffc2   00000002  00000000  00000002  RWIX
  INT26                 0000ffc4   00000002  00000000  00000002  RWIX
  INT27                 0000ffc6   00000002  00000000  00000002  RWIX
  INT28                 0000ffc8   00000002  00000000  00000002  RWIX
  INT29                 0000ffca   00000002  00000000  00000002  RWIX
  INT30                 0000ffcc   00000002  00000000  00000002  RWIX
  INT31                 0000ffce   00000002  00000002  00000000  RWIX
  INT32                 0000ffd0   00000002  00000002  00000000  RWIX
  INT33                 0000ffd2   00000002  00000002  00000000  RWIX
  INT34                 0000ffd4   00000002  00000002  00000000  RWIX
  INT35                 0000ffd6   00000002  00000002  00000000  RWIX
  INT36                 0000ffd8   00000002  00000002  00000000  RWIX
  INT37                 0000ffda   00000002  00000002  00000000  RWIX
  INT38                 0000ffdc   00000002  00000002  00000000  RWIX
  INT39                 0000ffde   00000002  00000002  00000000  RWIX
  INT40                 0000ffe0   00000002  00000002  00000000  RWIX
  INT41                 0000ffe2   00000002  00000002  00000000  RWIX
  INT42                 0000ffe4   00000002  00000002  00000000  RWIX
  INT43                 0000ffe6   00000002  00000002  00000000  RWIX
  INT44                 0000ffe8   00000002  00000002  00000000  RWIX
  INT45                 0000ffea   00000002  00000002  00000000  RWIX
  INT46                 0000ffec   00000002  00000002  00000000  RWIX
  INT47                 0000ffee   00000002  00000002  00000000  RWIX
  INT48                 0000fff0   00000002  00000002  00000000  RWIX
  INT49                 0000fff2   00000002  00000002  00000000  RWIX
  INT50                 0000fff4   00000002  00000002  00000000  RWIX
  INT51                 0000fff6   00000002  00000002  00000000  RWIX
  INT52                 0000fff8   00000002  00000002  00000000  RWIX
  INT53                 0000fffa   00000002  00000002  00000000  RWIX
  INT54                 0000fffc   00000002  00000002  00000000  RWIX
  RESET                 0000fffe   00000002  00000002  00000000  RWIX


SECTION ALLOCATION MAP

 output                                  attributes/
section   page    origin      length       input sections
--------  ----  ----------  ----------   ----------------
.bss       0    00001c00    000000bd     UNINITIALIZED
                  00001c00    00000024     (.common:sInFrameQ)
                  00001c24    00000024     (.common:sOutFrameQ)
                  00001c48    00000022     (.common:mrfiIncomingPacket)
                  00001c6a    0000001e     (.common:data)
                  00001c88    00000010     (.common:radio_tx_buffer)
                  00001c98    00000010     (.common:sensors_tx_buffer)
                  00001ca8    00000004     (.common:sAPAddress)
                  00001cac    00000004     (.common:sMyRAMAddress)
                  00001cb0    00000002     (.common:rx_packet_data)
                  00001cb2    00000002     (.common:sServiceLinkID)
                  00001cb4    00000002     (.common:tx_packet_data)
                  00001cb6    00000001     (.common:receive_flag)
                  00001cb7    00000001     (.common:rx_byte_ctr)
                  00001cb8    00000001     (.common:rx_packet_length)
                  00001cb9    00000001     (.common:spi_received_data)
                  00001cba    00000001     (.common:transmit_flag)
                  00001cbb    00000001     (.common:tx_byte_ctr)
                  00001cbc    00000001     (.common:tx_packet_length)

.TI.noinit 
*          0    00001cbe    00000002     UNINITIALIZED
                  00001cbe    00000002     HAL_device.obj (.TI.noinit)

.data      0    00001cc0    0000005a     UNINITIALIZED
                  00001cc0    0000001d     nwk.obj (.data)
                  00001cdd    00000001     Node_Radio_Interface.obj (.data)
                  00001cde    0000000a     compass_main.obj (.data)
                  00001ce8    0000000a     nwk_frame.obj (.data)
                  00001cf2    00000009     nwk_join.obj (.data)
                  00001cfb    00000001     mrfi_f1f2.obj (.data)
                  00001cfc    00000008     mrfi_radio.obj (.data)
                  00001d04    00000007     nwk_link.obj (.data)
                  00001d0b    00000001     nwk_api.obj (.data)
                  00001d0c    00000005     HAL_device.obj (.data)
                  00001d11    00000001     nwk_globals.obj (.data)
                  00001d12    00000004     mrfi_f1f2.obj (.data:mrfiRxFilterAddr)
                  00001d16    00000003     nwk_mgmt.obj (.data)
                  00001d19    00000001     nwk_ping.obj (.data)

.TI.persistent 
*          0    00001cc0    00000000     UNINITIALIZED

.stack     0    00001f60    000000a0     UNINITIALIZED
                  00001f60    00000002     rts430x_lc_sd_eabi.lib : boot.obj (.stack)
                  00001f62    0000009e     --HOLE--

.cio       0    0000c200    00000000     UNINITIALIZED

.sysmem    0    0000c200    00000000     UNINITIALIZED

.cinit     0    0000c200    00000030     
                  0000c200    0000000e     (.cinit..data.load) [load image, compression = rle]
                  0000c20e    0000000c     (__TI_handler_table)
                  0000c21a    00000006     (.cinit..bss.load) [load image, compression = zero_init]
                  0000c220    00000010     (__TI_cinit_table)

.pinit     0    0000c230    00000000     UNINITIALIZED

.init_array 
*          0    0000c230    00000000     UNINITIALIZED

.mspabi.exidx 
*          0    0000c230    00000000     UNINITIALIZED

.mspabi.extab 
*          0    0000c230    00000000     UNINITIALIZED

.const     0    0000c230    00000069     
                  0000c230    0000003c     mrfi_radio.obj (.const:mrfiRadioCfg)
                  0000c26c    00000018     nwk_frame.obj (.const:func)
                  0000c284    00000009     nwk_globals.obj (.const)
                  0000c28d    00000001     --HOLE-- [fill = 0]
                  0000c28e    00000004     mrfi_f1f2.obj (.const:.string:mrfiBroadcastAddr)
                  0000c292    00000004     mrfi_f1f2.obj (.const:.string:mrfiLogicalChanTable)
                  0000c296    00000003     mrfi_f1f2.obj (.const:.string:mrfiRFPowerTable)

.ipe       0    0000c400    00000000     UNINITIALIZED

.text      0    0000c400    000027ce     
                  0000c400    000001d4     mrfi_radio.obj (.text:MRFI_Init)
                  0000c5d4    00000196     nwk_link.obj (.text:smpl_send_link_reply)
                  0000c76a    00000156     nwk_link.obj (.text:nwk_link)
                  0000c8c0    00000140     HAL_I2C.obj (.text:_isr:USCI_I2C_ISR)
                  0000ca00    0000013c     nwk_api.obj (.text:SMPL_Ioctl)
                  0000cb3c    00000124     nwk_QMgmt.obj (.text:nwk_QfindOldest)
                  0000cc60    000000fe     mrfi_radio.obj (.text:MRFI_Transmit)
                  0000cd5e    000000fe     nwk_api.obj (.text:SMPL_SendOpt)
                  0000ce5c    000000f8     nwk_join.obj (.text:nwk_join)
                  0000cf54    000000da     mrfi_radio.obj (.text:Mrfi_SyncPinRxIsr)
                  0000d02e    000000d8     rts430x_lc_sd_eabi.lib : copy_decompress_rle.obj (.text:__TI_decompress_rle_core)
                  0000d106    000000d0     nwk.obj (.text:nwk_allocateLocalRxPort)
                  0000d1d6    000000ce     compass.obj (.text:transmit_structure)
                  0000d2a4    000000ae     nwk_frame.obj (.text:dispatchFrame)
                  0000d352    000000a6     nwk_frame.obj (.text:nwk_retrieveFrame)
                  0000d3f8    000000a0     nwk_ioctl.obj (.text:nwk_radioControl)
                  0000d498    0000009a     nwk_frame.obj (.text:nwk_sendAckReply)
                  0000d532    00000096     nwk_frame.obj (.text:nwk_buildFrame)
                  0000d5c8    0000008e     nwk.obj (.text:nwk_isConnectionValid)
                  0000d656    0000008c     mrfi_spi.obj (.text:spiBurstFifoAccess)
                  0000d6e2    00000084     nwk.obj (.text:nwk_nwkInit)
                  0000d766    0000007c     nwk_QMgmt.obj (.text:nwk_QfindSlot)
                  0000d7e2    00000078     Magnetometer.obj (.text:init_magnetometer)
                  0000d85a    00000070     rts430x_lc_sd_eabi.lib : autoinit.obj (.text:_auto_init)
                  0000d8ca    00000066     nwk_link.obj (.text:smpl_send_unlink_reply)
                  0000d930    00000060     Accelerometer.obj (.text:init_accelerometer)
                  0000d990    00000058     mrfi_radio.obj (.text:MRFI_WakeUp)
                  0000d9e8    00000058     rts430x_lc_sd_eabi.lib : div32u.obj (.text)
                  0000da40    00000054     HAL_I2C.obj (.text:I2C_Master_Init)
                  0000da94    00000054     Accelerometer.obj (.text:read_accelerometer)
                  0000dae8    00000054     Magnetometer.obj (.text:read_magnetometer)
                  0000db3c    00000052     nwk_ioctl.obj (.text:nwk_rawSend)
                  0000db8e    0000004e     HAL_I2C.obj (.text:I2C_Read_Packet_From_Sensor)
                  0000dbdc    0000004e     HAL_device.obj (.text:board_init)
                  0000dc2a    0000004c     HAL_spi.obj (.text:sw_spi_tx)
                  0000dc76    0000004a     nwk.obj (.text:nwk_getNextConnection)
                  0000dcc0    00000048     Node_Radio_Interface.obj (.text:radio_tx)
                  0000dd08    00000046     mrfi_f1f2.obj (.text:MRFI_RxAddrIsFiltered)
                  0000dd4e    00000046     rts430x_lc_sd_eabi.lib : fs_tou.obj (.text)
                  0000dd94    00000046     HAL_device.obj (.text:sensors_reset)
                  0000ddda    00000044     mrfi_radio.obj (.text:MRFI_Rssi)
                  0000de1e    00000044     mrfi_spi.obj (.text:mrfiSpiCmdStrobe)
                  0000de62    00000044     nwk_ping.obj (.text:smpl_send_ping_reply)
                  0000dea6    00000042     HAL_I2C.obj (.text:I2C_Write_Packet_To_Sensor)
                  0000dee8    00000042     nwk.obj (.text:nwk_findPeer)
                  0000df2a    00000040     mrfi_radio.obj (.text:MRFI_ReplyDelay)
                  0000df6a    00000040     rts430x_lc_sd_eabi.lib : cpy_util.obj (.text:__memcpy_far)
                  0000dfaa    0000003e                            : copy_zero_init.obj (.text:decompress:ZI:__TI_zero_init)
                  0000dfe8    0000003e     nwk.obj (.text:initializeConnection)
                  0000e026    0000003e     compass_main.obj (.text:main)
                  0000e064    0000003e     mrfi_spi.obj (.text:spiRegAccess)
                  0000e0a2    0000003c     rts430x_lc_sd_eabi.lib : copy_decompress_none.obj (.text:decompress:none:__TI_decompress_none)
                  0000e0de    0000003c     nwk.obj (.text:nwk_isLinkDuplicate)
                  0000e11a    0000003c     nwk.obj (.text:nwk_putNumObjectIntoMsg)
                  0000e156    0000003a     nwk.obj (.text:nwk_isValidReply)
                  0000e190    0000003a     nwk_mgmt.obj (.text:nwk_processMgmt)
                  0000e1ca    0000003a     HAL_device.obj (.text:os_usdelay_timer_init)
                  0000e204    00000034     mrfi_f1f2.obj (.text:MRFI_SetRFPwr)
                  0000e238    00000034     mrfi_f1f2.obj (.text:MRFI_SetRxAddrFilter)
                  0000e26c    00000034     nwk_api.obj (.text:SMPL_Init)
                  0000e2a0    00000034     nwk_QMgmt.obj (.text:nwk_QadjustOrder)
                  0000e2d4    00000032     mrfi_f1f2.obj (.text:MRFI_SetLogicalChannel)
                  0000e306    00000032     nwk_ioctl.obj (.text:nwk_deviceAddress)
                  0000e338    00000032     nwk.obj (.text:nwk_getConnInfo)
                  0000e36a    00000032     nwk_link.obj (.text:nwk_linkInit)
                  0000e39c    00000030     nwk_ioctl.obj (.text:nwk_rawReceive)
                  0000e3cc    00000030     nwk_frame.obj (.text:nwk_sendFrame)
                  0000e3fc    0000002e     mrfi_radio.obj (.text:Mrfi_CalculateRssi)
                  0000e42a    0000002c     mrfi_radio.obj (.text:Mrfi_DelayUsecSem)
                  0000e456    0000002c     mrfi_radio.obj (.text:Mrfi_RxModeOff)
                  0000e482    0000002c     nwk_link.obj (.text:handleLinkRequest)
                  0000e4ae    0000002c     Node_Radio_Interface.obj (.text:linkTo)
                  0000e4da    0000002c     nwk.obj (.text:map_lid2idx)
                  0000e506    0000002c     rts430x_lc_sd_eabi.lib : div16s.obj (.text)
                  0000e532    0000002a     HAL_device.obj (.text:device_clk_init)
                  0000e55c    0000002a     nwk.obj (.text:nwk_checkConnInfo)
                  0000e586    0000002a     compass.obj (.text:sensors_init)
                  0000e5b0    00000028     nwk_ping.obj (.text:nwk_processPing)
                  0000e5d8    00000026     mrfi_radio.obj (.text:MRFI_Sleep)
                  0000e5fe    00000026     mrfi_radio.obj (.text:Mrfi_DelayUsec)
                  0000e624    00000026     mrfi_spi.obj (.text:mrfiSpiInit)
                  0000e64a    00000026     nwk_ioctl.obj (.text:nwk_connectionControl)
                  0000e670    00000026     nwk_globals.obj (.text:nwk_globalsInit)
                  0000e696    00000026     nwk_join.obj (.text:nwk_joinInit)
                  0000e6bc    00000026     nwk_link.obj (.text:nwk_processLink)
                  0000e6e2    00000024     mrfi_radio.obj (.text:Mrfi_RandomBackoffDelay)
                  0000e706    00000024     Node_Radio_Interface.obj (.text:radio_init)
                  0000e72a    00000022     mrfi_f1f2.obj (.text:MRFI_EnableRxAddrFilter)
                  0000e74c    00000022     mrfi_radio.obj (.text:MRFI_RxOn)
                  0000e76e    00000022     rts430x_lc_sd_eabi.lib : memcmp.obj (.text:memcmp)
                  0000e790    00000022     nwk_frame.obj (.text:nwk_buildAckReqFrame)
                  0000e7b2    00000022     rts430x_lc_sd_eabi.lib : mult32_f5hw.obj (.text)
                  0000e7d4    00000020     nwk_frame.obj (.text:MRFI_RxCompleteISR)
                  0000e7f4    00000020     mrfi_radio.obj (.text:MRFI_RxIdle)
                  0000e814    00000020     rts430x_lc_sd_eabi.lib : memmov.obj (.text:memmove)
                  0000e834    00000020     nwk_frame.obj (.text:nwk_frameInit)
                  0000e854    00000020     nwk_join.obj (.text:nwk_processJoin)
                  0000e874    00000020     Magnetometer.obj (.text:read_magnetometer_temperature)
                  0000e894    0000001e     mrfi_spi.obj (.text:mrfiSpiReadReg)
                  0000e8b2    0000001e     nwk_QMgmt.obj (.text:nwk_QInit)
                  0000e8d0    0000001e     HAL_device.obj (.text:os_timer_init)
                  0000e8ee    0000001c     mrfi_radio.obj (.text:MRFI_GpioIsr)
                  0000e90a    0000001c     HAL_device.obj (.text:_isr:PORT3_ISR)
                  0000e926    0000001c     nwk_globals.obj (.text:nwk_setMyAddress)
                  0000e942    0000001a     rts430x_lc_sd_eabi.lib : boot.obj (.text:_isr:_c_int00_noexit)
                  0000e95c    0000001a     mrfi_spi.obj (.text:mrfiSpiWriteReg)
                  0000e976    00000018     mrfi_radio.obj (.text:MRFI_DelayMs)
                  0000e98e    00000016     mrfi_radio.obj (.text:MRFI_RandomByte)
                  0000e9a4    00000016     mrfi_radio.obj (.text:Mrfi_RxModeOn)
                  0000e9ba    00000016     rts430x_lc_sd_eabi.lib : div16u.obj (.text)
                  0000e9d0    00000016                            : mult16_f5hw.obj (.text)
                  0000e9e6    00000014     nwk_api.obj (.text:ioctlPreInitAccessIsOK)
                  0000e9fa    00000014     rts430x_lc_sd_eabi.lib : memset.obj (.text:memset)
                  0000ea0e    00000014     HAL_spi.obj (.text:sw_spi_init)
                  0000ea22    00000012     HAL_device.obj (.text:device_startup)
                  0000ea34    00000012     rts430x_lc_sd_eabi.lib : memcpy.obj (.text:memcpy)
                  0000ea46    00000012     nwk_join.obj (.text:nwk_getJoinToken)
                  0000ea58    00000012     nwk_link.obj (.text:nwk_getLinkToken)
                  0000ea6a    00000012     nwk_globals.obj (.text:nwk_getMyAddress)
                  0000ea7c    00000012     nwk_join.obj (.text:nwk_setJoinToken)
                  0000ea8e    00000012     nwk_link.obj (.text:nwk_setLinkToken)
                  0000eaa0    00000010     HAL_device.obj (.text:_isr:OS_TIMER_ISR)
                  0000eab0    00000010     HAL_device.obj (.text:_system_pre_init)
                  0000eac0    00000010     rts430x_lc_sd_eabi.lib : asr32.obj (.text:l_asr)
                  0000ead0    0000000e     mrfi_radio.obj (.text:MRFI_Receive)
                  0000eade    0000000e     rts430x_lc_sd_eabi.lib : copy_decompress_rle.obj (.text:decompress:rle24:__TI_decompress_rle24)
                  0000eaec    0000000e     mrfi_spi.obj (.text:mrfiSpiWriteTxFifo)
                  0000eafa    0000000e     nwk.obj (.text:nwk_getNumObjectFromMsg)
                  0000eb08    0000000e     nwk_globals.obj (.text:nwk_setAPAddress)
                  0000eb16    0000000c     mrfi_radio.obj (.text:MRFI_PostKillSem)
                  0000eb22    0000000c     HAL_device.obj (.text:_isr:us_TIMER_ISR)
                  0000eb2e    0000000c     nwk_ping.obj (.text:handlePingRequest)
                  0000eb3a    0000000c     mrfi_spi.obj (.text:mrfiSpiReadRxFifo)
                  0000eb46    0000000a     nwk_mgmt.obj (.text:nwk_mgmtInit)
                  0000eb50    0000000a     nwk_ping.obj (.text:nwk_pingInit)
                  0000eb5a    00000008     HAL_I2C.obj (.text:I2C_Interrupt_Disable)
                  0000eb62    00000008     HAL_I2C.obj (.text:I2C_Interrupt_Enable)
                  0000eb6a    00000008     HAL_I2C.obj (.text:I2C_Set_Slave_Address)
                  0000eb72    00000008     compass.obj (.text:return_msb)
                  0000eb7a    00000006     HAL_I2C.obj (.text:I2C_Disable)
                  0000eb80    00000006     HAL_I2C.obj (.text:I2C_Enable)
                  0000eb86    00000006     mrfi_radio.obj (.text:MRFI_GetRadioState)
                  0000eb8c    00000006     rts430x_lc_sd_eabi.lib : isr_trap.obj (.text:__TI_ISR_TRAP)
                  0000eb92    00000006     nwk.obj (.text:nwk_freeConnection)
                  0000eb98    00000006     nwk_globals.obj (.text:nwk_getBCastAddress)
                  0000eb9e    00000006     nwk_globals.obj (.text:nwk_getFWVersion)
                  0000eba4    00000006     nwk_frame.obj (.text:nwk_getMyRxType)
                  0000ebaa    00000006     nwk_globals.obj (.text:nwk_getProtocolVersion)
                  0000ebb0    00000006     HAL_spi.obj (.text:sw_spi_rx)
                  0000ebb6    00000004     rts430x_lc_sd_eabi.lib : exit.obj (.text:abort)
                  0000ebba    00000004     nwk.obj (.text:nwk_NVObj)
                  0000ebbe    00000004     nwk_freq.obj (.text:nwk_processFreq)
                  0000ebc2    00000004     nwk_security.obj (.text:nwk_processSecurity)
                  0000ebc6    00000004     compass.obj (.text:return_lsb)
                  0000ebca    00000002     nwk_freq.obj (.text:nwk_freqInit)
                  0000ebcc    00000002     nwk_security.obj (.text:nwk_securityInit)

RTC        0    0000ffce    00000002     
                  0000ffce    00000002     rts430x_lc_sd_eabi.lib : int31.obj (.int31)

PORT4      0    0000ffd0    00000002     
                  0000ffd0    00000002     rts430x_lc_sd_eabi.lib : int32.obj (.int32)

PORT3      0    0000ffd2    00000002     
                  0000ffd2    00000002     HAL_device.obj (.int33)

TIMER2_B1 
*          0    0000ffd4    00000002     
                  0000ffd4    00000002     rts430x_lc_sd_eabi.lib : int34.obj (.int34)

TIMER2_B0 
*          0    0000ffd6    00000002     
                  0000ffd6    00000002     rts430x_lc_sd_eabi.lib : int35.obj (.int35)

PORT2      0    0000ffd8    00000002     
                  0000ffd8    00000002     rts430x_lc_sd_eabi.lib : int36.obj (.int36)

TIMER1_B1 
*          0    0000ffda    00000002     
                  0000ffda    00000002     rts430x_lc_sd_eabi.lib : int37.obj (.int37)

TIMER1_B0 
*          0    0000ffdc    00000002     
                  0000ffdc    00000002     rts430x_lc_sd_eabi.lib : int38.obj (.int38)

PORT1      0    0000ffde    00000002     
                  0000ffde    00000002     rts430x_lc_sd_eabi.lib : int39.obj (.int39)

TIMER1_A1 
*          0    0000ffe0    00000002     
                  0000ffe0    00000002     rts430x_lc_sd_eabi.lib : int40.obj (.int40)

TIMER1_A0 
*          0    0000ffe2    00000002     
                  0000ffe2    00000002     rts430x_lc_sd_eabi.lib : int41.obj (.int41)

DMA        0    0000ffe4    00000002     
                  0000ffe4    00000002     rts430x_lc_sd_eabi.lib : int42.obj (.int42)

USCI_A1    0    0000ffe6    00000002     
                  0000ffe6    00000002     rts430x_lc_sd_eabi.lib : int43.obj (.int43)

TIMER0_A1 
*          0    0000ffe8    00000002     
                  0000ffe8    00000002     rts430x_lc_sd_eabi.lib : int44.obj (.int44)

TIMER0_A0 
*          0    0000ffea    00000002     
                  0000ffea    00000002     HAL_device.obj (.int45)

ADC10      0    0000ffec    00000002     
                  0000ffec    00000002     rts430x_lc_sd_eabi.lib : int46.obj (.int46)

USCI_B0    0    0000ffee    00000002     
                  0000ffee    00000002     HAL_I2C.obj (.int47)

USCI_A0    0    0000fff0    00000002     
                  0000fff0    00000002     rts430x_lc_sd_eabi.lib : int48.obj (.int48)

WDT        0    0000fff2    00000002     
                  0000fff2    00000002     rts430x_lc_sd_eabi.lib : int49.obj (.int49)

TIMER0_B1 
*          0    0000fff4    00000002     
                  0000fff4    00000002     rts430x_lc_sd_eabi.lib : int50.obj (.int50)

TIMER0_B0 
*          0    0000fff6    00000002     
                  0000fff6    00000002     HAL_device.obj (.int51)

COMP_D     0    0000fff8    00000002     
                  0000fff8    00000002     rts430x_lc_sd_eabi.lib : int52.obj (.int52)

UNMI       0    0000fffa    00000002     
                  0000fffa    00000002     rts430x_lc_sd_eabi.lib : int53.obj (.int53)

SYSNMI     0    0000fffc    00000002     
                  0000fffc    00000002     rts430x_lc_sd_eabi.lib : int54.obj (.int54)

.reset     0    0000fffe    00000002     
                  0000fffe    00000002     rts430x_lc_sd_eabi.lib : boot.obj (.reset)


LINKER GENERATED COPY TABLES

__TI_cinit_table @ 0000c220 records: 2, size/record: 8, table size: 16
	.data: load addr=0000c200, load size=0000000e bytes, run addr=00001cc0, run size=0000005a bytes, compression=rle
	.bss: load addr=0000c21a, load size=00000006 bytes, run addr=00001c00, run size=000000bd bytes, compression=zero_init


LINKER GENERATED HANDLER TABLE

__TI_handler_table @ 0000c20e records: 3, size/record: 4, table size: 12
	index: 0, handler: __TI_zero_init
	index: 1, handler: __TI_decompress_rle24
	index: 2, handler: __TI_decompress_none


GLOBAL SYMBOLS: SORTED ALPHABETICALLY BY Name 

address    name
--------   ----
00000700   ADC10CTL0
00000701   ADC10CTL0_H
00000700   ADC10CTL0_L
00000702   ADC10CTL1
00000703   ADC10CTL1_H
00000702   ADC10CTL1_L
00000704   ADC10CTL2
00000705   ADC10CTL2_H
00000704   ADC10CTL2_L
00000708   ADC10HI
00000709   ADC10HI_H
00000708   ADC10HI_L
0000071a   ADC10IE
0000071b   ADC10IE_H
0000071a   ADC10IE_L
0000071c   ADC10IFG
0000071d   ADC10IFG_H
0000071c   ADC10IFG_L
0000071e   ADC10IV
0000071f   ADC10IV_H
0000071e   ADC10IV_L
00000706   ADC10LO
00000707   ADC10LO_H
00000706   ADC10LO_L
0000070a   ADC10MCTL0
0000070b   ADC10MCTL0_H
0000070a   ADC10MCTL0_L
00000712   ADC10MEM0
00000713   ADC10MEM0_H
00000712   ADC10MEM0_L
000004be   BCD2BIN
000004bc   BIN2BCD
0000e1ca   BSP_DELAY_USECS
0000ebb6   C$$EXIT
000008c0   CDCTL0
000008c1   CDCTL0_H
000008c0   CDCTL0_L
000008c2   CDCTL1
000008c3   CDCTL1_H
000008c2   CDCTL1_L
000008c4   CDCTL2
000008c5   CDCTL2_H
000008c4   CDCTL2_L
000008c6   CDCTL3
000008c7   CDCTL3_H
000008c6   CDCTL3_L
000008cc   CDINT
000008cd   CDINT_H
000008cc   CDINT_L
000008ce   CDIV
000008cf   CDIV_H
000008ce   CDIV_L
00000150   CRCDI
00000152   CRCDIRB
00000153   CRCDIRB_H
00000152   CRCDIRB_L
00000151   CRCDI_H
00000150   CRCDI_L
00000154   CRCINIRES
00000155   CRCINIRES_H
00000154   CRCINIRES_L
00000156   CRCRESR
00000157   CRCRESR_H
00000156   CRCRESR_L
00000160   CSCTL0
00000161   CSCTL0_H
00000160   CSCTL0_L
00000162   CSCTL1
00000163   CSCTL1_H
00000162   CSCTL1_L
00000164   CSCTL2
00000165   CSCTL2_H
00000164   CSCTL2_L
00000166   CSCTL3
00000167   CSCTL3_H
00000166   CSCTL3_L
00000168   CSCTL4
00000169   CSCTL4_H
00000168   CSCTL4_L
0000016a   CSCTL5
0000016b   CSCTL5_H
0000016a   CSCTL5_L
0000016c   CSCTL6
0000016d   CSCTL6_H
0000016c   CSCTL6_L
00000510   DMA0CTL
00000511   DMA0CTL_H
00000510   DMA0CTL_L
00000516   DMA0DA
00000516   DMA0DAL
00000512   DMA0SA
00000512   DMA0SAL
0000051a   DMA0SZ
00000520   DMA1CTL
00000521   DMA1CTL_H
00000520   DMA1CTL_L
00000526   DMA1DA
00000526   DMA1DAL
00000522   DMA1SA
00000522   DMA1SAL
0000052a   DMA1SZ
00000530   DMA2CTL
00000531   DMA2CTL_H
00000530   DMA2CTL_L
00000536   DMA2DA
00000536   DMA2DAL
00000532   DMA2SA
00000532   DMA2SAL
0000053a   DMA2SZ
00000500   DMACTL0
00000501   DMACTL0_H
00000500   DMACTL0_L
00000502   DMACTL1
00000503   DMACTL1_H
00000502   DMACTL1_L
00000504   DMACTL2
00000505   DMACTL2_H
00000504   DMACTL2_L
00000506   DMACTL3
00000507   DMACTL3_H
00000506   DMACTL3_L
00000508   DMACTL4
00000509   DMACTL4_H
00000508   DMACTL4_L
0000050e   DMAIV
0000050f   DMAIV_H
0000050e   DMAIV_L
00000140   FRCTL0
00000141   FRCTL0_H
00000140   FRCTL0_L
00000144   GCCTL0
00000145   GCCTL0_H
00000144   GCCTL0_L
00000146   GCCTL1
00000147   GCCTL1_H
00000146   GCCTL1_L
0000eb7a   I2C_Disable
0000eb80   I2C_Enable
0000eb5a   I2C_Interrupt_Disable
0000eb62   I2C_Interrupt_Enable
0000da40   I2C_Master_Init
0000db8e   I2C_Read_Packet_From_Sensor
0000eb6a   I2C_Set_Slave_Address
0000dea6   I2C_Write_Packet_To_Sensor
000004c4   MAC
000004da   MAC32H
000004db   MAC32H_H
000004da   MAC32H_L
000004d8   MAC32L
000004d9   MAC32L_H
000004d8   MAC32L_L
000004c6   MACS
000004de   MACS32H
000004df   MACS32H_H
000004de   MACS32H_L
000004dc   MACS32L
000004dd   MACS32L_H
000004dc   MACS32L_L
000004c7   MACS_H
000004c6   MACS_L
000004c5   MAC_H
000004c4   MAC_L
000005a0   MPUCTL0
000005a1   MPUCTL0_H
000005a0   MPUCTL0_L
000005a2   MPUCTL1
000005a3   MPUCTL1_H
000005a2   MPUCTL1_L
000005a6   MPUSAM
000005a7   MPUSAM_H
000005a6   MPUSAM_L
000005a4   MPUSEG
000005a5   MPUSEG_H
000005a4   MPUSEG_L
000004c0   MPY
000004ec   MPY32CTL0
000004ed   MPY32CTL0_H
000004ec   MPY32CTL0_L
000004d2   MPY32H
000004d3   MPY32H_H
000004d2   MPY32H_L
000004d0   MPY32L
000004d1   MPY32L_H
000004d0   MPY32L_L
000004c2   MPYS
000004d6   MPYS32H
000004d7   MPYS32H_H
000004d6   MPYS32H_L
000004d4   MPYS32L
000004d5   MPYS32L_H
000004d4   MPYS32L_L
000004c3   MPYS_H
000004c2   MPYS_L
000004c1   MPY_H
000004c0   MPY_L
0000e976   MRFI_DelayMs
0000e72a   MRFI_EnableRxAddrFilter
0000eb86   MRFI_GetRadioState
0000e8ee   MRFI_GpioIsr
0000c400   MRFI_Init
0000eb16   MRFI_PostKillSem
0000e98e   MRFI_RandomByte
0000ead0   MRFI_Receive
0000df2a   MRFI_ReplyDelay
0000ddda   MRFI_Rssi
0000dd08   MRFI_RxAddrIsFiltered
0000e7d4   MRFI_RxCompleteISR
0000e7f4   MRFI_RxIdle
0000e74c   MRFI_RxOn
0000e2d4   MRFI_SetLogicalChannel
0000e204   MRFI_SetRFPwr
0000e238   MRFI_SetRxAddrFilter
0000e5d8   MRFI_Sleep
0000cc60   MRFI_Transmit
0000d990   MRFI_WakeUp
0000e456   Mrfi_RxModeOff
0000e9a4   Mrfi_RxModeOn
000004c8   OP2
000004e2   OP2H
000004e3   OP2H_H
000004e2   OP2H_L
000004e0   OP2L
000004e1   OP2L_H
000004e0   OP2L_L
000004c9   OP2_H
000004c8   OP2_L
0000eaa0   OS_TIMER_ISR
0000020e   P1IV
0000021e   P2IV
0000022e   P3IV
0000023e   P4IV
00000204   PADIR
00000205   PADIR_H
00000204   PADIR_L
0000021a   PAIE
00000218   PAIES
00000219   PAIES_H
00000218   PAIES_L
0000021b   PAIE_H
0000021a   PAIE_L
0000021c   PAIFG
0000021d   PAIFG_H
0000021c   PAIFG_L
00000200   PAIN
00000201   PAIN_H
00000200   PAIN_L
00000202   PAOUT
00000203   PAOUT_H
00000202   PAOUT_L
00000206   PAREN
00000207   PAREN_H
00000206   PAREN_L
0000020a   PASEL0
0000020b   PASEL0_H
0000020a   PASEL0_L
0000020c   PASEL1
0000020d   PASEL1_H
0000020c   PASEL1_L
00000216   PASELC
00000217   PASELC_H
00000216   PASELC_L
00000224   PBDIR
00000225   PBDIR_H
00000224   PBDIR_L
0000023a   PBIE
00000238   PBIES
00000239   PBIES_H
00000238   PBIES_L
0000023b   PBIE_H
0000023a   PBIE_L
0000023c   PBIFG
0000023d   PBIFG_H
0000023c   PBIFG_L
00000220   PBIN
00000221   PBIN_H
00000220   PBIN_L
00000222   PBOUT
00000223   PBOUT_H
00000222   PBOUT_L
00000226   PBREN
00000227   PBREN_H
00000226   PBREN_L
0000022a   PBSEL0
0000022b   PBSEL0_H
0000022a   PBSEL0_L
0000022c   PBSEL1
0000022d   PBSEL1_H
0000022c   PBSEL1_L
00000236   PBSELC
00000237   PBSELC_H
00000236   PBSELC_L
00000324   PJDIR
00000325   PJDIR_H
00000324   PJDIR_L
00000320   PJIN
00000321   PJIN_H
00000320   PJIN_L
00000322   PJOUT
00000323   PJOUT_H
00000322   PJOUT_L
00000326   PJREN
00000327   PJREN_H
00000326   PJREN_L
0000032a   PJSEL0
0000032b   PJSEL0_H
0000032a   PJSEL0_L
0000032c   PJSEL1
0000032d   PJSEL1_H
0000032c   PJSEL1_L
00000336   PJSELC
00000337   PJSELC_H
00000336   PJSELC_L
00000130   PM5CTL0
00000131   PM5CTL0_H
00000130   PM5CTL0_L
00000120   PMMCTL0
00000121   PMMCTL0_H
00000120   PMMCTL0_L
0000012a   PMMIFG
0000012b   PMMIFG_H
0000012a   PMMIFG_L
0000e90a   PORT3_ISR
000001b0   REFCTL0
000001b1   REFCTL0_H
000001b0   REFCTL0_L
000004e4   RES0
000004e5   RES0_H
000004e4   RES0_L
000004e6   RES1
000004e7   RES1_H
000004e6   RES1_L
000004e8   RES2
000004e9   RES2_H
000004e8   RES2_L
000004ea   RES3
000004eb   RES3_H
000004ea   RES3_L
000004cc   RESHI
000004cd   RESHI_H
000004cc   RESHI_L
000004ca   RESLO
000004cb   RESLO_H
000004ca   RESLO_L
000004ba   RTCADOWDAY
000004bb   RTCADOWDAY_H
000004ba   RTCADOWDAY_L
000004b8   RTCAMINHR
000004b9   RTCAMINHR_H
000004b8   RTCAMINHR_L
000004a0   RTCCTL01
000004a1   RTCCTL01_H
000004a0   RTCCTL01_L
000004a2   RTCCTL23
000004a3   RTCCTL23_H
000004a2   RTCCTL23_L
000004b4   RTCDATE
000004b5   RTCDATE_H
000004b4   RTCDATE_L
000004ae   RTCIV
000004ac   RTCPS
000004a8   RTCPS0CTL
000004a9   RTCPS0CTL_H
000004a8   RTCPS0CTL_L
000004aa   RTCPS1CTL
000004ab   RTCPS1CTL_H
000004aa   RTCPS1CTL_L
000004ad   RTCPS_H
000004ac   RTCPS_L
000004b0   RTCTIM0
000004b1   RTCTIM0_H
000004b0   RTCTIM0_L
000004b2   RTCTIM1
000004b3   RTCTIM1_H
000004b2   RTCTIM1_L
000004b6   RTCYEAR
000004b7   RTCYEAR_H
000004b6   RTCYEAR_L
00000100   SFRIE1
00000101   SFRIE1_H
00000100   SFRIE1_L
00000102   SFRIFG1
00000103   SFRIFG1_H
00000102   SFRIFG1_L
00000104   SFRRPCR
00000105   SFRRPCR_H
00000104   SFRRPCR_L
0000e26c   SMPL_Init
0000ca00   SMPL_Ioctl
0000c76a   SMPL_Link
0000cd5e   SMPL_SendOpt
000004ce   SUMEXT
000004cf   SUMEXT_H
000004ce   SUMEXT_L
00000198   SYSBERRIV
00000199   SYSBERRIV_H
00000198   SYSBERRIV_L
00000182   SYSBSLC
00000183   SYSBSLC_H
00000182   SYSBSLC_L
00000180   SYSCTL
00000181   SYSCTL_H
00000180   SYSCTL_L
00000186   SYSJMBC
00000187   SYSJMBC_H
00000186   SYSJMBC_L
00000188   SYSJMBI0
00000189   SYSJMBI0_H
00000188   SYSJMBI0_L
0000018a   SYSJMBI1
0000018b   SYSJMBI1_H
0000018a   SYSJMBI1_L
0000018c   SYSJMBO0
0000018d   SYSJMBO0_H
0000018c   SYSJMBO0_L
0000018e   SYSJMBO1
0000018f   SYSJMBO1_H
0000018e   SYSJMBO1_L
0000019e   SYSRSTIV
0000019f   SYSRSTIV_H
0000019e   SYSRSTIV_L
0000019c   SYSSNIV
0000019d   SYSSNIV_H
0000019c   SYSSNIV_L
0000019a   SYSUNIV
0000019b   SYSUNIV_H
0000019a   SYSUNIV_L
00001cbe   SysRstIv
00000352   TA0CCR0
00000354   TA0CCR1
00000356   TA0CCR2
00000342   TA0CCTL0
00000344   TA0CCTL1
00000346   TA0CCTL2
00000340   TA0CTL
00000360   TA0EX0
0000036e   TA0IV
00000350   TA0R
00000392   TA1CCR0
00000394   TA1CCR1
00000396   TA1CCR2
00000382   TA1CCTL0
00000384   TA1CCTL1
00000386   TA1CCTL2
00000380   TA1CTL
000003a0   TA1EX0
000003ae   TA1IV
00000390   TA1R
000003d2   TB0CCR0
000003d4   TB0CCR1
000003d6   TB0CCR2
000003c2   TB0CCTL0
000003c4   TB0CCTL1
000003c6   TB0CCTL2
000003c0   TB0CTL
000003e0   TB0EX0
000003ee   TB0IV
000003d0   TB0R
00000412   TB1CCR0
00000414   TB1CCR1
00000416   TB1CCR2
00000402   TB1CCTL0
00000404   TB1CCTL1
00000406   TB1CCTL2
00000400   TB1CTL
00000420   TB1EX0
0000042e   TB1IV
00000410   TB1R
00000452   TB2CCR0
00000454   TB2CCR1
00000456   TB2CCR2
00000442   TB2CCTL0
00000444   TB2CCTL1
00000446   TB2CCTL2
00000440   TB2CTL
00000460   TB2EX0
0000046e   TB2IV
00000450   TB2R
000005d0   UCA0ABCTL
000005c6   UCA0BRW
000005c7   UCA0BRW_H
000005c6   UCA0BRW_L
000005c0   UCA0CTLW0
000005c1   UCA0CTLW0_H
000005c0   UCA0CTLW0_L
000005c2   UCA0CTLW1
000005c3   UCA0CTLW1_H
000005c2   UCA0CTLW1_L
000005da   UCA0IE
000005db   UCA0IE_H
000005da   UCA0IE_L
000005dc   UCA0IFG
000005dd   UCA0IFG_H
000005dc   UCA0IFG_L
000005d2   UCA0IRCTL
000005d3   UCA0IRCTL_H
000005d2   UCA0IRCTL_L
000005de   UCA0IV
000005c8   UCA0MCTLW
000005c9   UCA0MCTLW_H
000005c8   UCA0MCTLW_L
000005cc   UCA0RXBUF
000005cd   UCA0RXBUF_H
000005cc   UCA0RXBUF_L
000005ca   UCA0STATW
000005ce   UCA0TXBUF
000005cf   UCA0TXBUF_H
000005ce   UCA0TXBUF_L
000005f0   UCA1ABCTL
000005e6   UCA1BRW
000005e7   UCA1BRW_H
000005e6   UCA1BRW_L
000005e0   UCA1CTLW0
000005e1   UCA1CTLW0_H
000005e0   UCA1CTLW0_L
000005e2   UCA1CTLW1
000005e3   UCA1CTLW1_H
000005e2   UCA1CTLW1_L
000005fa   UCA1IE
000005fb   UCA1IE_H
000005fa   UCA1IE_L
000005fc   UCA1IFG
000005fd   UCA1IFG_H
000005fc   UCA1IFG_L
000005f2   UCA1IRCTL
000005f3   UCA1IRCTL_H
000005f2   UCA1IRCTL_L
000005fe   UCA1IV
000005e8   UCA1MCTLW
000005e9   UCA1MCTLW_H
000005e8   UCA1MCTLW_L
000005ec   UCA1RXBUF
000005ed   UCA1RXBUF_H
000005ec   UCA1RXBUF_L
000005ea   UCA1STATW
000005ee   UCA1TXBUF
000005ef   UCA1TXBUF_H
000005ee   UCA1TXBUF_L
0000065e   UCB0ADDMASK
0000065f   UCB0ADDMASK_H
0000065e   UCB0ADDMASK_L
0000065c   UCB0ADDRX
0000065d   UCB0ADDRX_H
0000065c   UCB0ADDRX_L
00000646   UCB0BRW
00000647   UCB0BRW_H
00000646   UCB0BRW_L
00000640   UCB0CTLW0
00000641   UCB0CTLW0_H
00000640   UCB0CTLW0_L
00000642   UCB0CTLW1
00000643   UCB0CTLW1_H
00000642   UCB0CTLW1_L
00000654   UCB0I2COA0
00000655   UCB0I2COA0_H
00000654   UCB0I2COA0_L
00000656   UCB0I2COA1
00000657   UCB0I2COA1_H
00000656   UCB0I2COA1_L
00000658   UCB0I2COA2
00000659   UCB0I2COA2_H
00000658   UCB0I2COA2_L
0000065a   UCB0I2COA3
0000065b   UCB0I2COA3_H
0000065a   UCB0I2COA3_L
00000660   UCB0I2CSA
00000661   UCB0I2CSA_H
00000660   UCB0I2CSA_L
0000066a   UCB0IE
0000066b   UCB0IE_H
0000066a   UCB0IE_L
0000066c   UCB0IFG
0000066d   UCB0IFG_H
0000066c   UCB0IFG_L
0000066e   UCB0IV
0000064c   UCB0RXBUF
0000064d   UCB0RXBUF_H
0000064c   UCB0RXBUF_L
00000648   UCB0STATW
00000649   UCB0STATW_H
00000648   UCB0STATW_L
0000064a   UCB0TBCNT
0000064b   UCB0TBCNT_H
0000064a   UCB0TBCNT_L
0000064e   UCB0TXBUF
0000064f   UCB0TXBUF_H
0000064e   UCB0TXBUF_L
0000c8c0   USCI_I2C_ISR
0000015c   WDTCTL
0000015d   WDTCTL_H
0000015c   WDTCTL_L
00002000   __STACK_END
000000a0   __STACK_SIZE
0000c220   __TI_CINIT_Base
0000c230   __TI_CINIT_Limit
0000c20e   __TI_Handler_Table_Base
0000c21a   __TI_Handler_Table_Limit
UNDEFED    __TI_INITARRAY_Base
UNDEFED    __TI_INITARRAY_Limit
0000eb8c   __TI_ISR_TRAP
00000001   __TI_args_main
0000e0a2   __TI_decompress_none
0000eade   __TI_decompress_rle24
00000001   __TI_exit
0000ffce   __TI_int31
0000ffd0   __TI_int32
0000ffd2   __TI_int33
0000ffd4   __TI_int34
0000ffd6   __TI_int35
0000ffd8   __TI_int36
0000ffda   __TI_int37
0000ffdc   __TI_int38
0000ffde   __TI_int39
0000ffe0   __TI_int40
0000ffe2   __TI_int41
0000ffe4   __TI_int42
0000ffe6   __TI_int43
0000ffe8   __TI_int44
0000ffea   __TI_int45
0000ffec   __TI_int46
0000ffee   __TI_int47
0000fff0   __TI_int48
0000fff2   __TI_int49
0000fff4   __TI_int50
0000fff6   __TI_int51
0000fff8   __TI_int52
0000fffa   __TI_int53
0000fffc   __TI_int54
0000dfaa   __TI_zero_init
ffffffff   __binit__
ffffffff   __c_args__
0000df6a   __memcpy_far
0000e506   __mspabi_divi
0000e9ba   __mspabi_divu
0000d9e8   __mspabi_divul
0000dd4e   __mspabi_fixfu
0000e9d0   __mspabi_mpyi_f5hw
0000e7b2   __mspabi_mpyl_f5hw
0000e506   __mspabi_remi
0000e9ba   __mspabi_remu
0000d9e8   __mspabi_remul
0000eac0   __mspabi_sral
0000d85a   _auto_init
0000e942   _c_int00
0000e942   _c_int00_noexit
0000fffe   _reset_vector
00001f60   _stack
0000eab0   _system_pre_init
0000ebb6   abort
ffffffff   binit
00001c6a   data
0000ea22   device_startup
0000c400   fram_ipe_end
0000c400   fram_ipe_start
0000c200   fram_ro_start
0000c200   fram_rw_start
0000c400   fram_rx_start
00001ce4   frame_count
0000d930   init_accelerometer
0000d7e2   init_magnetometer
0000e026   main
0000e76e   memcmp
0000ea34   memcpy
0000e814   memmove
0000e9fa   memset
0000c28e   mrfiBroadcastAddr
00001cfc   mrfiRadioState
0000de1e   mrfiSpiCmdStrobe
0000e624   mrfiSpiInit
0000e894   mrfiSpiReadReg
0000eb3a   mrfiSpiReadRxFifo
0000e95c   mrfiSpiWriteReg
0000eaec   mrfiSpiWriteTxFifo
00001ce0   msgs_error
0000ebba   nwk_NVObj
0000e8b2   nwk_QInit
0000e2a0   nwk_QadjustOrder
0000cb3c   nwk_QfindOldest
0000d766   nwk_QfindSlot
0000d106   nwk_allocateLocalRxPort
0000e790   nwk_buildAckReqFrame
0000d532   nwk_buildFrame
0000e55c   nwk_checkConnInfo
0000e64a   nwk_connectionControl
0000e306   nwk_deviceAddress
0000dee8   nwk_findPeer
0000e834   nwk_frameInit
0000eb92   nwk_freeConnection
0000ebca   nwk_freqInit
0000eb98   nwk_getBCastAddress
0000e338   nwk_getConnInfo
0000eb9e   nwk_getFWVersion
0000ea46   nwk_getJoinToken
0000ea58   nwk_getLinkToken
0000ea6a   nwk_getMyAddress
0000eba4   nwk_getMyRxType
0000dc76   nwk_getNextConnection
0000eafa   nwk_getNumObjectFromMsg
0000ebaa   nwk_getProtocolVersion
0000e670   nwk_globalsInit
0000d5c8   nwk_isConnectionValid
0000e0de   nwk_isLinkDuplicate
0000e156   nwk_isValidReply
0000ce5c   nwk_join
0000e696   nwk_joinInit
0000c76a   nwk_link
0000e36a   nwk_linkInit
0000eb46   nwk_mgmtInit
0000d6e2   nwk_nwkInit
0000eb50   nwk_pingInit
0000ebbe   nwk_processFreq
0000e854   nwk_processJoin
0000e6bc   nwk_processLink
0000e190   nwk_processMgmt
0000e5b0   nwk_processPing
0000ebc2   nwk_processSecurity
0000e11a   nwk_putNumObjectIntoMsg
0000d3f8   nwk_radioControl
0000e39c   nwk_rawReceive
0000db3c   nwk_rawSend
0000d352   nwk_retrieveFrame
0000ebcc   nwk_securityInit
0000d498   nwk_sendAckReply
0000e3cc   nwk_sendFrame
0000eb08   nwk_setAPAddress
0000ea7c   nwk_setJoinToken
0000ea8e   nwk_setLinkToken
0000e926   nwk_setMyAddress
00001d0c   os_timer_overflow
0000e1ca   os_usdelay_timer_init
0000e706   radio_init
00001cde   radio_status
0000dcc0   radio_tx
00001c88   radio_tx_buffer
0000da94   read_accelerometer
0000dae8   read_magnetometer
0000e874   read_magnetometer_temperature
00001cb6   receive_flag
0000ebc6   return_lsb
0000eb72   return_msb
00001cb7   rx_byte_ctr
00001cb0   rx_packet_data
00001cb8   rx_packet_length
00001cdd   sLinkID1
0000e586   sensors_init
0000dd94   sensors_reset
00001c98   sensors_tx_buffer
00001cb9   spi_received_data
0000ea0e   sw_spi_init
0000ebb0   sw_spi_rx
0000dc2a   sw_spi_tx
00001cba   transmit_flag
0000d1d6   transmit_structure
00001cbb   tx_byte_ctr
00001cb4   tx_packet_data
00001cbc   tx_packet_length
0000eb22   us_TIMER_ISR
00001d10   us_delay_lock


GLOBAL SYMBOLS: SORTED BY Symbol Address 

address    name
--------   ----
00000001   __TI_args_main
00000001   __TI_exit
000000a0   __STACK_SIZE
00000100   SFRIE1
00000100   SFRIE1_L
00000101   SFRIE1_H
00000102   SFRIFG1
00000102   SFRIFG1_L
00000103   SFRIFG1_H
00000104   SFRRPCR
00000104   SFRRPCR_L
00000105   SFRRPCR_H
00000120   PMMCTL0
00000120   PMMCTL0_L
00000121   PMMCTL0_H
0000012a   PMMIFG
0000012a   PMMIFG_L
0000012b   PMMIFG_H
00000130   PM5CTL0
00000130   PM5CTL0_L
00000131   PM5CTL0_H
00000140   FRCTL0
00000140   FRCTL0_L
00000141   FRCTL0_H
00000144   GCCTL0
00000144   GCCTL0_L
00000145   GCCTL0_H
00000146   GCCTL1
00000146   GCCTL1_L
00000147   GCCTL1_H
00000150   CRCDI
00000150   CRCDI_L
00000151   CRCDI_H
00000152   CRCDIRB
00000152   CRCDIRB_L
00000153   CRCDIRB_H
00000154   CRCINIRES
00000154   CRCINIRES_L
00000155   CRCINIRES_H
00000156   CRCRESR
00000156   CRCRESR_L
00000157   CRCRESR_H
0000015c   WDTCTL
0000015c   WDTCTL_L
0000015d   WDTCTL_H
00000160   CSCTL0
00000160   CSCTL0_L
00000161   CSCTL0_H
00000162   CSCTL1
00000162   CSCTL1_L
00000163   CSCTL1_H
00000164   CSCTL2
00000164   CSCTL2_L
00000165   CSCTL2_H
00000166   CSCTL3
00000166   CSCTL3_L
00000167   CSCTL3_H
00000168   CSCTL4
00000168   CSCTL4_L
00000169   CSCTL4_H
0000016a   CSCTL5
0000016a   CSCTL5_L
0000016b   CSCTL5_H
0000016c   CSCTL6
0000016c   CSCTL6_L
0000016d   CSCTL6_H
00000180   SYSCTL
00000180   SYSCTL_L
00000181   SYSCTL_H
00000182   SYSBSLC
00000182   SYSBSLC_L
00000183   SYSBSLC_H
00000186   SYSJMBC
00000186   SYSJMBC_L
00000187   SYSJMBC_H
00000188   SYSJMBI0
00000188   SYSJMBI0_L
00000189   SYSJMBI0_H
0000018a   SYSJMBI1
0000018a   SYSJMBI1_L
0000018b   SYSJMBI1_H
0000018c   SYSJMBO0
0000018c   SYSJMBO0_L
0000018d   SYSJMBO0_H
0000018e   SYSJMBO1
0000018e   SYSJMBO1_L
0000018f   SYSJMBO1_H
00000198   SYSBERRIV
00000198   SYSBERRIV_L
00000199   SYSBERRIV_H
0000019a   SYSUNIV
0000019a   SYSUNIV_L
0000019b   SYSUNIV_H
0000019c   SYSSNIV
0000019c   SYSSNIV_L
0000019d   SYSSNIV_H
0000019e   SYSRSTIV
0000019e   SYSRSTIV_L
0000019f   SYSRSTIV_H
000001b0   REFCTL0
000001b0   REFCTL0_L
000001b1   REFCTL0_H
00000200   PAIN
00000200   PAIN_L
00000201   PAIN_H
00000202   PAOUT
00000202   PAOUT_L
00000203   PAOUT_H
00000204   PADIR
00000204   PADIR_L
00000205   PADIR_H
00000206   PAREN
00000206   PAREN_L
00000207   PAREN_H
0000020a   PASEL0
0000020a   PASEL0_L
0000020b   PASEL0_H
0000020c   PASEL1
0000020c   PASEL1_L
0000020d   PASEL1_H
0000020e   P1IV
00000216   PASELC
00000216   PASELC_L
00000217   PASELC_H
00000218   PAIES
00000218   PAIES_L
00000219   PAIES_H
0000021a   PAIE
0000021a   PAIE_L
0000021b   PAIE_H
0000021c   PAIFG
0000021c   PAIFG_L
0000021d   PAIFG_H
0000021e   P2IV
00000220   PBIN
00000220   PBIN_L
00000221   PBIN_H
00000222   PBOUT
00000222   PBOUT_L
00000223   PBOUT_H
00000224   PBDIR
00000224   PBDIR_L
00000225   PBDIR_H
00000226   PBREN
00000226   PBREN_L
00000227   PBREN_H
0000022a   PBSEL0
0000022a   PBSEL0_L
0000022b   PBSEL0_H
0000022c   PBSEL1
0000022c   PBSEL1_L
0000022d   PBSEL1_H
0000022e   P3IV
00000236   PBSELC
00000236   PBSELC_L
00000237   PBSELC_H
00000238   PBIES
00000238   PBIES_L
00000239   PBIES_H
0000023a   PBIE
0000023a   PBIE_L
0000023b   PBIE_H
0000023c   PBIFG
0000023c   PBIFG_L
0000023d   PBIFG_H
0000023e   P4IV
00000320   PJIN
00000320   PJIN_L
00000321   PJIN_H
00000322   PJOUT
00000322   PJOUT_L
00000323   PJOUT_H
00000324   PJDIR
00000324   PJDIR_L
00000325   PJDIR_H
00000326   PJREN
00000326   PJREN_L
00000327   PJREN_H
0000032a   PJSEL0
0000032a   PJSEL0_L
0000032b   PJSEL0_H
0000032c   PJSEL1
0000032c   PJSEL1_L
0000032d   PJSEL1_H
00000336   PJSELC
00000336   PJSELC_L
00000337   PJSELC_H
00000340   TA0CTL
00000342   TA0CCTL0
00000344   TA0CCTL1
00000346   TA0CCTL2
00000350   TA0R
00000352   TA0CCR0
00000354   TA0CCR1
00000356   TA0CCR2
00000360   TA0EX0
0000036e   TA0IV
00000380   TA1CTL
00000382   TA1CCTL0
00000384   TA1CCTL1
00000386   TA1CCTL2
00000390   TA1R
00000392   TA1CCR0
00000394   TA1CCR1
00000396   TA1CCR2
000003a0   TA1EX0
000003ae   TA1IV
000003c0   TB0CTL
000003c2   TB0CCTL0
000003c4   TB0CCTL1
000003c6   TB0CCTL2
000003d0   TB0R
000003d2   TB0CCR0
000003d4   TB0CCR1
000003d6   TB0CCR2
000003e0   TB0EX0
000003ee   TB0IV
00000400   TB1CTL
00000402   TB1CCTL0
00000404   TB1CCTL1
00000406   TB1CCTL2
00000410   TB1R
00000412   TB1CCR0
00000414   TB1CCR1
00000416   TB1CCR2
00000420   TB1EX0
0000042e   TB1IV
00000440   TB2CTL
00000442   TB2CCTL0
00000444   TB2CCTL1
00000446   TB2CCTL2
00000450   TB2R
00000452   TB2CCR0
00000454   TB2CCR1
00000456   TB2CCR2
00000460   TB2EX0
0000046e   TB2IV
000004a0   RTCCTL01
000004a0   RTCCTL01_L
000004a1   RTCCTL01_H
000004a2   RTCCTL23
000004a2   RTCCTL23_L
000004a3   RTCCTL23_H
000004a8   RTCPS0CTL
000004a8   RTCPS0CTL_L
000004a9   RTCPS0CTL_H
000004aa   RTCPS1CTL
000004aa   RTCPS1CTL_L
000004ab   RTCPS1CTL_H
000004ac   RTCPS
000004ac   RTCPS_L
000004ad   RTCPS_H
000004ae   RTCIV
000004b0   RTCTIM0
000004b0   RTCTIM0_L
000004b1   RTCTIM0_H
000004b2   RTCTIM1
000004b2   RTCTIM1_L
000004b3   RTCTIM1_H
000004b4   RTCDATE
000004b4   RTCDATE_L
000004b5   RTCDATE_H
000004b6   RTCYEAR
000004b6   RTCYEAR_L
000004b7   RTCYEAR_H
000004b8   RTCAMINHR
000004b8   RTCAMINHR_L
000004b9   RTCAMINHR_H
000004ba   RTCADOWDAY
000004ba   RTCADOWDAY_L
000004bb   RTCADOWDAY_H
000004bc   BIN2BCD
000004be   BCD2BIN
000004c0   MPY
000004c0   MPY_L
000004c1   MPY_H
000004c2   MPYS
000004c2   MPYS_L
000004c3   MPYS_H
000004c4   MAC
000004c4   MAC_L
000004c5   MAC_H
000004c6   MACS
000004c6   MACS_L
000004c7   MACS_H
000004c8   OP2
000004c8   OP2_L
000004c9   OP2_H
000004ca   RESLO
000004ca   RESLO_L
000004cb   RESLO_H
000004cc   RESHI
000004cc   RESHI_L
000004cd   RESHI_H
000004ce   SUMEXT
000004ce   SUMEXT_L
000004cf   SUMEXT_H
000004d0   MPY32L
000004d0   MPY32L_L
000004d1   MPY32L_H
000004d2   MPY32H
000004d2   MPY32H_L
000004d3   MPY32H_H
000004d4   MPYS32L
000004d4   MPYS32L_L
000004d5   MPYS32L_H
000004d6   MPYS32H
000004d6   MPYS32H_L
000004d7   MPYS32H_H
000004d8   MAC32L
000004d8   MAC32L_L
000004d9   MAC32L_H
000004da   MAC32H
000004da   MAC32H_L
000004db   MAC32H_H
000004dc   MACS32L
000004dc   MACS32L_L
000004dd   MACS32L_H
000004de   MACS32H
000004de   MACS32H_L
000004df   MACS32H_H
000004e0   OP2L
000004e0   OP2L_L
000004e1   OP2L_H
000004e2   OP2H
000004e2   OP2H_L
000004e3   OP2H_H
000004e4   RES0
000004e4   RES0_L
000004e5   RES0_H
000004e6   RES1
000004e6   RES1_L
000004e7   RES1_H
000004e8   RES2
000004e8   RES2_L
000004e9   RES2_H
000004ea   RES3
000004ea   RES3_L
000004eb   RES3_H
000004ec   MPY32CTL0
000004ec   MPY32CTL0_L
000004ed   MPY32CTL0_H
00000500   DMACTL0
00000500   DMACTL0_L
00000501   DMACTL0_H
00000502   DMACTL1
00000502   DMACTL1_L
00000503   DMACTL1_H
00000504   DMACTL2
00000504   DMACTL2_L
00000505   DMACTL2_H
00000506   DMACTL3
00000506   DMACTL3_L
00000507   DMACTL3_H
00000508   DMACTL4
00000508   DMACTL4_L
00000509   DMACTL4_H
0000050e   DMAIV
0000050e   DMAIV_L
0000050f   DMAIV_H
00000510   DMA0CTL
00000510   DMA0CTL_L
00000511   DMA0CTL_H
00000512   DMA0SA
00000512   DMA0SAL
00000516   DMA0DA
00000516   DMA0DAL
0000051a   DMA0SZ
00000520   DMA1CTL
00000520   DMA1CTL_L
00000521   DMA1CTL_H
00000522   DMA1SA
00000522   DMA1SAL
00000526   DMA1DA
00000526   DMA1DAL
0000052a   DMA1SZ
00000530   DMA2CTL
00000530   DMA2CTL_L
00000531   DMA2CTL_H
00000532   DMA2SA
00000532   DMA2SAL
00000536   DMA2DA
00000536   DMA2DAL
0000053a   DMA2SZ
000005a0   MPUCTL0
000005a0   MPUCTL0_L
000005a1   MPUCTL0_H
000005a2   MPUCTL1
000005a2   MPUCTL1_L
000005a3   MPUCTL1_H
000005a4   MPUSEG
000005a4   MPUSEG_L
000005a5   MPUSEG_H
000005a6   MPUSAM
000005a6   MPUSAM_L
000005a7   MPUSAM_H
000005c0   UCA0CTLW0
000005c0   UCA0CTLW0_L
000005c1   UCA0CTLW0_H
000005c2   UCA0CTLW1
000005c2   UCA0CTLW1_L
000005c3   UCA0CTLW1_H
000005c6   UCA0BRW
000005c6   UCA0BRW_L
000005c7   UCA0BRW_H
000005c8   UCA0MCTLW
000005c8   UCA0MCTLW_L
000005c9   UCA0MCTLW_H
000005ca   UCA0STATW
000005cc   UCA0RXBUF
000005cc   UCA0RXBUF_L
000005cd   UCA0RXBUF_H
000005ce   UCA0TXBUF
000005ce   UCA0TXBUF_L
000005cf   UCA0TXBUF_H
000005d0   UCA0ABCTL
000005d2   UCA0IRCTL
000005d2   UCA0IRCTL_L
000005d3   UCA0IRCTL_H
000005da   UCA0IE
000005da   UCA0IE_L
000005db   UCA0IE_H
000005dc   UCA0IFG
000005dc   UCA0IFG_L
000005dd   UCA0IFG_H
000005de   UCA0IV
000005e0   UCA1CTLW0
000005e0   UCA1CTLW0_L
000005e1   UCA1CTLW0_H
000005e2   UCA1CTLW1
000005e2   UCA1CTLW1_L
000005e3   UCA1CTLW1_H
000005e6   UCA1BRW
000005e6   UCA1BRW_L
000005e7   UCA1BRW_H
000005e8   UCA1MCTLW
000005e8   UCA1MCTLW_L
000005e9   UCA1MCTLW_H
000005ea   UCA1STATW
000005ec   UCA1RXBUF
000005ec   UCA1RXBUF_L
000005ed   UCA1RXBUF_H
000005ee   UCA1TXBUF
000005ee   UCA1TXBUF_L
000005ef   UCA1TXBUF_H
000005f0   UCA1ABCTL
000005f2   UCA1IRCTL
000005f2   UCA1IRCTL_L
000005f3   UCA1IRCTL_H
000005fa   UCA1IE
000005fa   UCA1IE_L
000005fb   UCA1IE_H
000005fc   UCA1IFG
000005fc   UCA1IFG_L
000005fd   UCA1IFG_H
000005fe   UCA1IV
00000640   UCB0CTLW0
00000640   UCB0CTLW0_L
00000641   UCB0CTLW0_H
00000642   UCB0CTLW1
00000642   UCB0CTLW1_L
00000643   UCB0CTLW1_H
00000646   UCB0BRW
00000646   UCB0BRW_L
00000647   UCB0BRW_H
00000648   UCB0STATW
00000648   UCB0STATW_L
00000649   UCB0STATW_H
0000064a   UCB0TBCNT
0000064a   UCB0TBCNT_L
0000064b   UCB0TBCNT_H
0000064c   UCB0RXBUF
0000064c   UCB0RXBUF_L
0000064d   UCB0RXBUF_H
0000064e   UCB0TXBUF
0000064e   UCB0TXBUF_L
0000064f   UCB0TXBUF_H
00000654   UCB0I2COA0
00000654   UCB0I2COA0_L
00000655   UCB0I2COA0_H
00000656   UCB0I2COA1
00000656   UCB0I2COA1_L
00000657   UCB0I2COA1_H
00000658   UCB0I2COA2
00000658   UCB0I2COA2_L
00000659   UCB0I2COA2_H
0000065a   UCB0I2COA3
0000065a   UCB0I2COA3_L
0000065b   UCB0I2COA3_H
0000065c   UCB0ADDRX
0000065c   UCB0ADDRX_L
0000065d   UCB0ADDRX_H
0000065e   UCB0ADDMASK
0000065e   UCB0ADDMASK_L
0000065f   UCB0ADDMASK_H
00000660   UCB0I2CSA
00000660   UCB0I2CSA_L
00000661   UCB0I2CSA_H
0000066a   UCB0IE
0000066a   UCB0IE_L
0000066b   UCB0IE_H
0000066c   UCB0IFG
0000066c   UCB0IFG_L
0000066d   UCB0IFG_H
0000066e   UCB0IV
00000700   ADC10CTL0
00000700   ADC10CTL0_L
00000701   ADC10CTL0_H
00000702   ADC10CTL1
00000702   ADC10CTL1_L
00000703   ADC10CTL1_H
00000704   ADC10CTL2
00000704   ADC10CTL2_L
00000705   ADC10CTL2_H
00000706   ADC10LO
00000706   ADC10LO_L
00000707   ADC10LO_H
00000708   ADC10HI
00000708   ADC10HI_L
00000709   ADC10HI_H
0000070a   ADC10MCTL0
0000070a   ADC10MCTL0_L
0000070b   ADC10MCTL0_H
00000712   ADC10MEM0
00000712   ADC10MEM0_L
00000713   ADC10MEM0_H
0000071a   ADC10IE
0000071a   ADC10IE_L
0000071b   ADC10IE_H
0000071c   ADC10IFG
0000071c   ADC10IFG_L
0000071d   ADC10IFG_H
0000071e   ADC10IV
0000071e   ADC10IV_L
0000071f   ADC10IV_H
000008c0   CDCTL0
000008c0   CDCTL0_L
000008c1   CDCTL0_H
000008c2   CDCTL1
000008c2   CDCTL1_L
000008c3   CDCTL1_H
000008c4   CDCTL2
000008c4   CDCTL2_L
000008c5   CDCTL2_H
000008c6   CDCTL3
000008c6   CDCTL3_L
000008c7   CDCTL3_H
000008cc   CDINT
000008cc   CDINT_L
000008cd   CDINT_H
000008ce   CDIV
000008ce   CDIV_L
000008cf   CDIV_H
00001c6a   data
00001c88   radio_tx_buffer
00001c98   sensors_tx_buffer
00001cb0   rx_packet_data
00001cb4   tx_packet_data
00001cb6   receive_flag
00001cb7   rx_byte_ctr
00001cb8   rx_packet_length
00001cb9   spi_received_data
00001cba   transmit_flag
00001cbb   tx_byte_ctr
00001cbc   tx_packet_length
00001cbe   SysRstIv
00001cdd   sLinkID1
00001cde   radio_status
00001ce0   msgs_error
00001ce4   frame_count
00001cfc   mrfiRadioState
00001d0c   os_timer_overflow
00001d10   us_delay_lock
00001f60   _stack
00002000   __STACK_END
0000c200   fram_ro_start
0000c200   fram_rw_start
0000c20e   __TI_Handler_Table_Base
0000c21a   __TI_Handler_Table_Limit
0000c220   __TI_CINIT_Base
0000c230   __TI_CINIT_Limit
0000c28e   mrfiBroadcastAddr
0000c400   MRFI_Init
0000c400   fram_ipe_end
0000c400   fram_ipe_start
0000c400   fram_rx_start
0000c76a   SMPL_Link
0000c76a   nwk_link
0000c8c0   USCI_I2C_ISR
0000ca00   SMPL_Ioctl
0000cb3c   nwk_QfindOldest
0000cc60   MRFI_Transmit
0000cd5e   SMPL_SendOpt
0000ce5c   nwk_join
0000d106   nwk_allocateLocalRxPort
0000d1d6   transmit_structure
0000d352   nwk_retrieveFrame
0000d3f8   nwk_radioControl
0000d498   nwk_sendAckReply
0000d532   nwk_buildFrame
0000d5c8   nwk_isConnectionValid
0000d6e2   nwk_nwkInit
0000d766   nwk_QfindSlot
0000d7e2   init_magnetometer
0000d85a   _auto_init
0000d930   init_accelerometer
0000d990   MRFI_WakeUp
0000d9e8   __mspabi_divul
0000d9e8   __mspabi_remul
0000da40   I2C_Master_Init
0000da94   read_accelerometer
0000dae8   read_magnetometer
0000db3c   nwk_rawSend
0000db8e   I2C_Read_Packet_From_Sensor
0000dc2a   sw_spi_tx
0000dc76   nwk_getNextConnection
0000dcc0   radio_tx
0000dd08   MRFI_RxAddrIsFiltered
0000dd4e   __mspabi_fixfu
0000dd94   sensors_reset
0000ddda   MRFI_Rssi
0000de1e   mrfiSpiCmdStrobe
0000dea6   I2C_Write_Packet_To_Sensor
0000dee8   nwk_findPeer
0000df2a   MRFI_ReplyDelay
0000df6a   __memcpy_far
0000dfaa   __TI_zero_init
0000e026   main
0000e0a2   __TI_decompress_none
0000e0de   nwk_isLinkDuplicate
0000e11a   nwk_putNumObjectIntoMsg
0000e156   nwk_isValidReply
0000e190   nwk_processMgmt
0000e1ca   BSP_DELAY_USECS
0000e1ca   os_usdelay_timer_init
0000e204   MRFI_SetRFPwr
0000e238   MRFI_SetRxAddrFilter
0000e26c   SMPL_Init
0000e2a0   nwk_QadjustOrder
0000e2d4   MRFI_SetLogicalChannel
0000e306   nwk_deviceAddress
0000e338   nwk_getConnInfo
0000e36a   nwk_linkInit
0000e39c   nwk_rawReceive
0000e3cc   nwk_sendFrame
0000e456   Mrfi_RxModeOff
0000e506   __mspabi_divi
0000e506   __mspabi_remi
0000e55c   nwk_checkConnInfo
0000e586   sensors_init
0000e5b0   nwk_processPing
0000e5d8   MRFI_Sleep
0000e624   mrfiSpiInit
0000e64a   nwk_connectionControl
0000e670   nwk_globalsInit
0000e696   nwk_joinInit
0000e6bc   nwk_processLink
0000e706   radio_init
0000e72a   MRFI_EnableRxAddrFilter
0000e74c   MRFI_RxOn
0000e76e   memcmp
0000e790   nwk_buildAckReqFrame
0000e7b2   __mspabi_mpyl_f5hw
0000e7d4   MRFI_RxCompleteISR
0000e7f4   MRFI_RxIdle
0000e814   memmove
0000e834   nwk_frameInit
0000e854   nwk_processJoin
0000e874   read_magnetometer_temperature
0000e894   mrfiSpiReadReg
0000e8b2   nwk_QInit
0000e8ee   MRFI_GpioIsr
0000e90a   PORT3_ISR
0000e926   nwk_setMyAddress
0000e942   _c_int00
0000e942   _c_int00_noexit
0000e95c   mrfiSpiWriteReg
0000e976   MRFI_DelayMs
0000e98e   MRFI_RandomByte
0000e9a4   Mrfi_RxModeOn
0000e9ba   __mspabi_divu
0000e9ba   __mspabi_remu
0000e9d0   __mspabi_mpyi_f5hw
0000e9fa   memset
0000ea0e   sw_spi_init
0000ea22   device_startup
0000ea34   memcpy
0000ea46   nwk_getJoinToken
0000ea58   nwk_getLinkToken
0000ea6a   nwk_getMyAddress
0000ea7c   nwk_setJoinToken
0000ea8e   nwk_setLinkToken
0000eaa0   OS_TIMER_ISR
0000eab0   _system_pre_init
0000eac0   __mspabi_sral
0000ead0   MRFI_Receive
0000eade   __TI_decompress_rle24
0000eaec   mrfiSpiWriteTxFifo
0000eafa   nwk_getNumObjectFromMsg
0000eb08   nwk_setAPAddress
0000eb16   MRFI_PostKillSem
0000eb22   us_TIMER_ISR
0000eb3a   mrfiSpiReadRxFifo
0000eb46   nwk_mgmtInit
0000eb50   nwk_pingInit
0000eb5a   I2C_Interrupt_Disable
0000eb62   I2C_Interrupt_Enable
0000eb6a   I2C_Set_Slave_Address
0000eb72   return_msb
0000eb7a   I2C_Disable
0000eb80   I2C_Enable
0000eb86   MRFI_GetRadioState
0000eb8c   __TI_ISR_TRAP
0000eb92   nwk_freeConnection
0000eb98   nwk_getBCastAddress
0000eb9e   nwk_getFWVersion
0000eba4   nwk_getMyRxType
0000ebaa   nwk_getProtocolVersion
0000ebb0   sw_spi_rx
0000ebb6   C$$EXIT
0000ebb6   abort
0000ebba   nwk_NVObj
0000ebbe   nwk_processFreq
0000ebc2   nwk_processSecurity
0000ebc6   return_lsb
0000ebca   nwk_freqInit
0000ebcc   nwk_securityInit
0000ffce   __TI_int31
0000ffd0   __TI_int32
0000ffd2   __TI_int33
0000ffd4   __TI_int34
0000ffd6   __TI_int35
0000ffd8   __TI_int36
0000ffda   __TI_int37
0000ffdc   __TI_int38
0000ffde   __TI_int39
0000ffe0   __TI_int40
0000ffe2   __TI_int41
0000ffe4   __TI_int42
0000ffe6   __TI_int43
0000ffe8   __TI_int44
0000ffea   __TI_int45
0000ffec   __TI_int46
0000ffee   __TI_int47
0000fff0   __TI_int48
0000fff2   __TI_int49
0000fff4   __TI_int50
0000fff6   __TI_int51
0000fff8   __TI_int52
0000fffa   __TI_int53
0000fffc   __TI_int54
0000fffe   _reset_vector
ffffffff   __binit__
ffffffff   __c_args__
ffffffff   binit
UNDEFED    __TI_INITARRAY_Base
UNDEFED    __TI_INITARRAY_Limit

[757 symbols]
